target datalayout = "e-m:e-p270:32:32-p271:32:32-p272:64:64-i64:64-i128:128-f80:128-n8:16:32:64-S128"
target triple = "x86_64-pc-linux-gnu"

%"class.icu_77::UnicodeString" = type { %"class.icu_77::Replaceable", %"union.icu_77::UnicodeString::StackBufferOrFields" }
%"class.icu_77::Replaceable" = type { %"class.icu_77::UObject" }
%"class.icu_77::UObject" = type { ptr }
%"union.icu_77::UnicodeString::StackBufferOrFields" = type { %struct.anon.0, [32 x i8] }
%struct.anon.0 = type { i16, i32, i32, ptr }
%"class.icu_77::RBBISymbolTableEntry" = type { [8 x i8], %"class.icu_77::UnicodeString", ptr }
%"class.icu_77::RBBINode" = type { i32, ptr, ptr, ptr, ptr, i32, %"class.icu_77::UnicodeString", i32, i32, i8, i32, i8, i8, i8, ptr, ptr, ptr }

; Function Attrs: mustprogress nounwind uwtable
define void @_ZN6icu_7720RBBISymbolTableEntryD2Ev(ptr noundef nonnull align 8 dereferenceable(80) %0) unnamed_addr #0 align 2 {
  %2 = alloca ptr, align 8
  store ptr %0, ptr %2, align 8, !tbaa !43
  %3 = load ptr, ptr %2, align 8
  %4 = getelementptr inbounds nuw %"class.icu_77::RBBISymbolTableEntry", ptr %3, i32 0, i32 2
  %5 = load ptr, ptr %4, align 8, !tbaa !45
  %6 = getelementptr inbounds nuw %"class.icu_77::RBBINode", ptr %5, i32 0, i32 2
  %7 = load ptr, ptr %6, align 8, !tbaa !49
  %8 = icmp eq ptr %7, null
  br i1 %8, label %10, label %9

9:                                                ; preds = %1
  call void @_ZN6icu_778RBBINodeD1Ev(ptr noundef nonnull align 8 dereferenceable(160) %7) #10
  call void @_ZN6icu_777UMemorydlEPv(ptr noundef %7) #10
  br label %10

10:                                               ; preds = %9, %1
  %11 = getelementptr inbounds nuw %"class.icu_77::RBBISymbolTableEntry", ptr %3, i32 0, i32 2
  %12 = load ptr, ptr %11, align 8, !tbaa !45
  %13 = getelementptr inbounds nuw %"class.icu_77::RBBINode", ptr %12, i32 0, i32 2
  store ptr null, ptr %13, align 8, !tbaa !49
  %14 = getelementptr inbounds nuw %"class.icu_77::RBBISymbolTableEntry", ptr %3, i32 0, i32 2
  %15 = load ptr, ptr %14, align 8, !tbaa !45
  %16 = icmp eq ptr %15, null
  br i1 %16, label %18, label %17

17:                                               ; preds = %10
  call void @_ZN6icu_778RBBINodeD1Ev(ptr noundef nonnull align 8 dereferenceable(160) %15) #10
  call void @_ZN6icu_777UMemorydlEPv(ptr noundef %15) #10
  br label %18

18:                                               ; preds = %17, %10
  %19 = getelementptr inbounds nuw %"class.icu_77::RBBISymbolTableEntry", ptr %3, i32 0, i32 1
  call void @_ZN6icu_7713UnicodeStringD1Ev(ptr noundef nonnull align 8 dereferenceable(64) %19) #10
  ret void
}