; Function Attrs: mustprogress nounwind uwtable
define void @_ZN6icu_7720RBBISymbolTableEntryD2Ev(ptr noundef nonnull align 8 dereferenceable(80) %0) unnamed_addr #0 align 2 {
  %2 = getelementptr inbounds nuw i8, ptr %0, i64 72
  %3 = load ptr, ptr %2, align 8, !tbaa !30
  %4 = getelementptr inbounds nuw i8, ptr %3, i64 16
  %5 = load ptr, ptr %4, align 8, !tbaa !33
  %6 = icmp eq ptr %5, null
  br i1 %6, label %8, label %7

7:                                                ; preds = %1
  tail call void @_ZN6icu_778RBBINodeD1Ev(ptr noundef nonnull align 8 dereferenceable(160) %5) #13
  tail call void @_ZN6icu_777UMemorydlEPv(ptr noundef nonnull %5) #13
  %.pre = load ptr, ptr %2, align 8, !tbaa !30
  br label %8

8:                                                ; preds = %7, %1
  %9 = phi ptr [ %.pre, %7 ], [ %3, %1 ]
  %10 = getelementptr inbounds nuw i8, ptr %9, i64 16
  store ptr null, ptr %10, align 8, !tbaa !33
  tail call void @_ZN6icu_778RBBINodeD1Ev(ptr noundef nonnull align 8 dereferenceable(160) %9) #13
  tail call void @_ZN6icu_777UMemorydlEPv(ptr noundef nonnull %9) #13
  %11 = getelementptr inbounds nuw i8, ptr %0, i64 8
  tail call void @_ZN6icu_7713UnicodeStringD1Ev(ptr noundef nonnull align 8 dereferenceable(64) %11) #13
  ret void
}